; Function Attrs: mustprogress nounwind uwtable
define range(i32 0, -65535) i32 @_ZNK8WasmEdge4Host4WASI5INode19pathRemoveDirectoryENSt7__cxx1112basic_stringIcSt11char_traitsIcESaIcEEE(ptr noundef nonnull readonly align 8 captures(none) dereferenceable(200) %0, ptr noundef nonnull %1) local_unnamed_addr #0 align 2 personality ptr @__gxx_personality_v0 {
  %3 = load i32, ptr %0, align 8
  %4 = tail call noundef ptr @_ZNKSt7__cxx1112basic_stringIcSt11char_traitsIcESaIcEE5c_strEv(ptr noundef nonnull align 8 dereferenceable(32) %1) #24
  %5 = tail call i32 @unlinkat(i32 noundef %3, ptr noundef %4, i32 noundef 512) #24
  %6 = icmp slt i32 %5, 0
  br i1 %6, label %7, label %13

7:                                                ; preds = %2
  %8 = tail call ptr @__errno_location() #25
  %9 = load i32, ptr %8, align 4
  %10 = tail call noundef zeroext i16 @_ZN8WasmEdge4Host4WASI6detail9fromErrNoEi(i32 noundef %9) #24
  %11 = zext i16 %10 to i32
  %12 = shl nuw i32 %11, 16
  br label %13

13:                                               ; preds = %2, %7
  %.sroa.01.0.insert.insert = phi i32 [ %12, %7 ], [ 1, %2 ]
  ret i32 %.sroa.01.0.insert.insert
}